; Function Attrs: mustprogress nounwind uwtable
define dso_local void @_ZN5clang14TextNodeDumper15dumpSourceRangeENS_11SourceRangeE(ptr nocapture noundef nonnull align 8 dereferenceable(1168) %0, i64 %1) local_unnamed_addr #0 align 2 {
  %.sroa.012.0.extract.trunc = trunc i64 %1 to i32
  %.sroa.3.0.extract.shift = lshr i64 %1, 32
  %.sroa.3.0.extract.trunc = trunc nuw i64 %.sroa.3.0.extract.shift to i32
  %3 = getelementptr inbounds nuw i8, ptr %0, i64 1136
  %4 = load ptr, ptr %3, align 8
  %.not = icmp eq ptr %4, null
  br i1 %.not, label %_ZN4llvm11raw_ostreamlsEPKc.exit10, label %5

5:                                                ; preds = %2
  %6 = getelementptr inbounds nuw i8, ptr %0, i64 1096
  %7 = load ptr, ptr %6, align 8
  %8 = getelementptr inbounds nuw i8, ptr %7, i64 24
  %9 = load ptr, ptr %8, align 8
  %10 = getelementptr inbounds nuw i8, ptr %7, i64 32
  %11 = load ptr, ptr %10, align 8
  %12 = ptrtoint ptr %9 to i64
  %13 = ptrtoint ptr %11 to i64
  %14 = sub i64 %12, %13
  %15 = icmp ult i64 %14, 2
  br i1 %15, label %16, label %18

16:                                               ; preds = %5
  %17 = tail call noundef nonnull align 8 dereferenceable(48) ptr @_ZN4llvm11raw_ostream5writeEPKcm(ptr noundef nonnull align 8 dereferenceable(48) %7, ptr noundef nonnull @.str.514, i64 noundef 2) #18
  br label %_ZN4llvm11raw_ostreamlsEPKc.exit

18:                                               ; preds = %5
  store i16 15392, ptr %11, align 1
  %19 = load ptr, ptr %10, align 8
  %20 = getelementptr inbounds i8, ptr %19, i64 2
  store ptr %20, ptr %10, align 8
  br label %_ZN4llvm11raw_ostreamlsEPKc.exit

_ZN4llvm11raw_ostreamlsEPKc.exit:                 ; preds = %16, %18
  tail call void @_ZN5clang14TextNodeDumper12dumpLocationENS_14SourceLocationE(ptr noundef nonnull align 8 dereferenceable(1168) %0, i32 %.sroa.012.0.extract.trunc)
  %.not13 = icmp eq i32 %.sroa.012.0.extract.trunc, %.sroa.3.0.extract.trunc
  br i1 %.not13, label %36, label %21

21:                                               ; preds = %_ZN4llvm11raw_ostreamlsEPKc.exit
  %22 = load ptr, ptr %6, align 8
  %23 = getelementptr inbounds nuw i8, ptr %22, i64 24
  %24 = load ptr, ptr %23, align 8
  %25 = getelementptr inbounds nuw i8, ptr %22, i64 32
  %26 = load ptr, ptr %25, align 8
  %27 = ptrtoint ptr %24 to i64
  %28 = ptrtoint ptr %26 to i64
  %29 = sub i64 %27, %28
  %30 = icmp ult i64 %29, 2
  br i1 %30, label %31, label %33

31:                                               ; preds = %21
  %32 = tail call noundef nonnull align 8 dereferenceable(48) ptr @_ZN4llvm11raw_ostream5writeEPKcm(ptr noundef nonnull align 8 dereferenceable(48) %22, ptr noundef nonnull @.str.515, i64 noundef 2) #18
  br label %_ZN4llvm11raw_ostreamlsEPKc.exit6

33:                                               ; preds = %21
  store i16 8236, ptr %26, align 1
  %34 = load ptr, ptr %25, align 8
  %35 = getelementptr inbounds i8, ptr %34, i64 2
  store ptr %35, ptr %25, align 8
  br label %_ZN4llvm11raw_ostreamlsEPKc.exit6

_ZN4llvm11raw_ostreamlsEPKc.exit6:                ; preds = %31, %33
  tail call void @_ZN5clang14TextNodeDumper12dumpLocationENS_14SourceLocationE(ptr noundef nonnull align 8 dereferenceable(1168) %0, i32 %.sroa.3.0.extract.trunc)
  br label %36

36:                                               ; preds = %_ZN4llvm11raw_ostreamlsEPKc.exit6, %_ZN4llvm11raw_ostreamlsEPKc.exit
  %37 = load ptr, ptr %6, align 8
  %38 = getelementptr inbounds nuw i8, ptr %37, i64 24
  %39 = load ptr, ptr %38, align 8
  %40 = getelementptr inbounds nuw i8, ptr %37, i64 32
  %41 = load ptr, ptr %40, align 8
  %42 = icmp eq ptr %39, %41
  br i1 %42, label %43, label %45

43:                                               ; preds = %36
  %44 = tail call noundef nonnull align 8 dereferenceable(48) ptr @_ZN4llvm11raw_ostream5writeEPKcm(ptr noundef nonnull align 8 dereferenceable(48) %37, ptr noundef nonnull @.str.516, i64 noundef 1) #18
  br label %_ZN4llvm11raw_ostreamlsEPKc.exit10

45:                                               ; preds = %36
  store i8 62, ptr %41, align 1
  %46 = load ptr, ptr %40, align 8
  %47 = getelementptr inbounds i8, ptr %46, i64 1
  store ptr %47, ptr %40, align 8
  br label %_ZN4llvm11raw_ostreamlsEPKc.exit10

_ZN4llvm11raw_ostreamlsEPKc.exit10:               ; preds = %45, %43, %2
  ret void
}